target datalayout = "e-m:e-p270:32:32-p271:32:32-p272:64:64-i64:64-i128:128-f80:128-n8:16:32:64-S128"
target triple = "x86_64-pc-linux-gnu"

%struct.buf_mem_st = type { i64, ptr, i64, i64 }

@test_bio_memleak.str = internal constant [10 x i8] c"BIO test\0A\00", align 1
@.str.7 = private unnamed_addr constant [35 x i8] c"../openssl/test/bio_memleak_test.c\00", align 1
@.str.8 = private unnamed_addr constant [4 x i8] c"bio\00", align 1
@.str.9 = private unnamed_addr constant [32 x i8] c"BIO_read(bio, buf, sizeof(buf))\00", align 1
@.str.10 = private unnamed_addr constant [12 x i8] c"sizeof(str)\00", align 1
@.str.11 = private unnamed_addr constant [4 x i8] c"buf\00", align 1
@.str.12 = private unnamed_addr constant [4 x i8] c"str\00", align 1

; Function Attrs: nounwind uwtable
define internal i32 @test_bio_memleak() #0 {
  %1 = alloca i32, align 4
  %2 = alloca ptr, align 8
  %3 = alloca %struct.buf_mem_st, align 8
  %4 = alloca [100 x i8], align 16
  call void @llvm.lifetime.start.p0(i64 4, ptr %1) #3
  store i32 0, ptr %1, align 4, !tbaa !4
  call void @llvm.lifetime.start.p0(i64 8, ptr %2) #3
  call void @llvm.lifetime.start.p0(i64 32, ptr %3) #3
  call void @llvm.lifetime.start.p0(i64 100, ptr %4) #3
  %5 = call ptr @BIO_s_mem()
  %6 = call ptr @BIO_new(ptr noundef %5)
  store ptr %6, ptr %2, align 8, !tbaa !8
  %7 = load ptr, ptr %2, align 8, !tbaa !8
  %8 = call i32 @test_ptr(ptr noundef @.str.7, i32 noundef 25, ptr noundef @.str.8, ptr noundef %7)
  %9 = icmp ne i32 %8, 0
  br i1 %9, label %11, label %10

10:                                               ; preds = %0
  br label %32

11:                                               ; preds = %0
  %12 = getelementptr inbounds nuw %struct.buf_mem_st, ptr %3, i32 0, i32 0
  store i64 10, ptr %12, align 8, !tbaa !11
  %13 = getelementptr inbounds nuw %struct.buf_mem_st, ptr %3, i32 0, i32 1
  store ptr @test_bio_memleak.str, ptr %13, align 8, !tbaa !15
  %14 = getelementptr inbounds nuw %struct.buf_mem_st, ptr %3, i32 0, i32 0
  %15 = load i64, ptr %14, align 8, !tbaa !11
  %16 = getelementptr inbounds nuw %struct.buf_mem_st, ptr %3, i32 0, i32 2
  store i64 %15, ptr %16, align 8, !tbaa !16
  %17 = load ptr, ptr %2, align 8, !tbaa !8
  %18 = call i64 @BIO_ctrl(ptr noundef %17, i32 noundef 114, i64 noundef 0, ptr noundef %3)
  %19 = load ptr, ptr %2, align 8, !tbaa !8
  call void @BIO_set_flags(ptr noundef %19, i32 noundef 512)
  %20 = load ptr, ptr %2, align 8, !tbaa !8
  %21 = getelementptr inbounds [100 x i8], ptr %4, i64 0, i64 0
  %22 = call i32 @BIO_read(ptr noundef %20, ptr noundef %21, i32 noundef 100)
  %23 = call i32 @test_int_eq(ptr noundef @.str.7, i32 noundef 32, ptr noundef @.str.9, ptr noundef @.str.10, i32 noundef %22, i32 noundef 10)
  %24 = icmp ne i32 %23, 0
  br i1 %24, label %26, label %25

25:                                               ; preds = %11
  br label %32

26:                                               ; preds = %11
  %27 = getelementptr inbounds [100 x i8], ptr %4, i64 0, i64 0
  %28 = call i32 @test_mem_eq(ptr noundef @.str.7, i32 noundef 34, ptr noundef @.str.11, ptr noundef @.str.12, ptr noundef %27, i64 noundef 10, ptr noundef @test_bio_memleak.str, i64 noundef 10)
  %29 = icmp ne i32 %28, 0
  br i1 %29, label %31, label %30

30:                                               ; preds = %26
  br label %32

31:                                               ; preds = %26
  store i32 1, ptr %1, align 4, !tbaa !4
  br label %32

32:                                               ; preds = %31, %30, %25, %10
  %33 = load ptr, ptr %2, align 8, !tbaa !8
  %34 = call i32 @BIO_free(ptr noundef %33)
  %35 = load i32, ptr %1, align 4, !tbaa !4
  call void @llvm.lifetime.end.p0(i64 100, ptr %4) #3
  call void @llvm.lifetime.end.p0(i64 32, ptr %3) #3
  call void @llvm.lifetime.end.p0(i64 8, ptr %2) #3
  call void @llvm.lifetime.end.p0(i64 4, ptr %1) #3
  ret i32 %35
}