; Function Attrs: nounwind uwtable
define internal range(i32 0, 2) i32 @test_bio_memleak() #0 {
  %1 = alloca %struct.buf_mem_st, align 8
  %2 = alloca [100 x i8], align 16
  call void @llvm.lifetime.start.p0(i64 32, ptr nonnull %1) #4
  call void @llvm.lifetime.start.p0(i64 100, ptr nonnull %2) #4
  %3 = tail call ptr @BIO_s_mem() #4
  %4 = tail call ptr @BIO_new(ptr noundef %3) #4
  %5 = tail call i32 @test_ptr(ptr noundef nonnull @.str.7, i32 noundef 25, ptr noundef nonnull @.str.8, ptr noundef %4) #4
  %.not = icmp eq i32 %5, 0
  br i1 %.not, label %14, label %6

6:                                                ; preds = %0
  store i64 10, ptr %1, align 8, !tbaa !4
  %7 = getelementptr inbounds nuw i8, ptr %1, i64 8
  store ptr @test_bio_memleak.str, ptr %7, align 8, !tbaa !11
  %8 = getelementptr inbounds nuw i8, ptr %1, i64 16
  store i64 10, ptr %8, align 8, !tbaa !12
  %9 = call i64 @BIO_ctrl(ptr noundef %4, i32 noundef 114, i64 noundef 0, ptr noundef nonnull %1) #4
  call void @BIO_set_flags(ptr noundef %4, i32 noundef 512) #4
  %10 = call i32 @BIO_read(ptr noundef %4, ptr noundef nonnull %2, i32 noundef 100) #4
  %11 = call i32 @test_int_eq(ptr noundef nonnull @.str.7, i32 noundef 32, ptr noundef nonnull @.str.9, ptr noundef nonnull @.str.10, i32 noundef %10, i32 noundef 10) #4
  %.not5 = icmp eq i32 %11, 0
  br i1 %.not5, label %14, label %12

12:                                               ; preds = %6
  %13 = call i32 @test_mem_eq(ptr noundef nonnull @.str.7, i32 noundef 34, ptr noundef nonnull @.str.11, ptr noundef nonnull @.str.12, ptr noundef nonnull %2, i64 noundef 10, ptr noundef nonnull @test_bio_memleak.str, i64 noundef 10) #4
  %.not6 = icmp ne i32 %13, 0
  %spec.select = zext i1 %.not6 to i32
  br label %14

14:                                               ; preds = %12, %6, %0
  %.0 = phi i32 [ 0, %6 ], [ 0, %0 ], [ %spec.select, %12 ]
  %15 = call i32 @BIO_free(ptr noundef %4) #4
  call void @llvm.lifetime.end.p0(i64 100, ptr nonnull %2) #4
  call void @llvm.lifetime.end.p0(i64 32, ptr nonnull %1) #4
  ret i32 %.0
}